target datalayout = "e-m:e-p270:32:32-p271:32:32-p272:64:64-i64:64-i128:128-f80:128-n8:16:32:64-S128"
target triple = "x86_64-pc-linux-gnu"

%"class.OpenSubdiv::v3_6_0::Bfr::SurfaceFactory" = type { %"class.OpenSubdiv::v3_6_0::Bfr::SurfaceFactoryMeshAdapter", i32, %"class.OpenSubdiv::v3_6_0::Sdc::Options", %"class.OpenSubdiv::v3_6_0::Bfr::SurfaceFactory::Options", i8, i32, ptr }
%"class.OpenSubdiv::v3_6_0::Bfr::SurfaceFactoryMeshAdapter" = type { ptr }
%"class.OpenSubdiv::v3_6_0::Sdc::Options" = type { i8, i8, i8, i8 }
%"class.OpenSubdiv::v3_6_0::Bfr::SurfaceFactory::Options" = type <{ i64, ptr, i8, i8, i8, [5 x i8] }>
%"class.OpenSubdiv::v3_6_0::Bfr::Parameterization" = type { i8, i8, i16 }
%"class.OpenSubdiv::v3_6_0::Bfr::internal::SurfaceData" = type { %"class.OpenSubdiv::v3_6_0::Vtr::internal::StackBuffer.4", %"class.OpenSubdiv::v3_6_0::Bfr::Parameterization", i8, i8, i8, %"class.std::shared_ptr" }
%"class.OpenSubdiv::v3_6_0::Vtr::internal::StackBuffer.4" = type { ptr, i32, i32, [80 x i8], ptr }
%"class.std::shared_ptr" = type { %"class.std::__shared_ptr" }
%"class.std::__shared_ptr" = type { ptr, %"class.std::__shared_count" }
%"class.std::__shared_count" = type { ptr }
%"class.OpenSubdiv::v3_6_0::Bfr::SurfaceFactory::SurfaceSet" = type { i32, i32, ptr, ptr, ptr, ptr, ptr }

; Function Attrs: mustprogress nounwind uwtable
define linkonce_odr noundef ptr @_ZNK10OpenSubdiv6v3_6_03Bfr14SurfaceFactory10SurfaceSet14GetFVarSurfaceEi(ptr noundef nonnull align 8 dereferenceable(48) %0, i32 noundef %1) #0 comdat align 2 {
  %3 = alloca ptr, align 8
  %4 = alloca i32, align 4
  store ptr %0, ptr %3, align 8
  store i32 %1, ptr %4, align 4
  %5 = load ptr, ptr %3, align 8
  %6 = getelementptr inbounds nuw %"class.OpenSubdiv::v3_6_0::Bfr::SurfaceFactory::SurfaceSet", ptr %5, i32 0, i32 4
  %7 = load ptr, ptr %6, align 8
  %8 = icmp ne ptr %7, null
  br i1 %8, label %9, label %15

9:                                                ; preds = %2
  %10 = getelementptr inbounds nuw %"class.OpenSubdiv::v3_6_0::Bfr::SurfaceFactory::SurfaceSet", ptr %5, i32 0, i32 4
  %11 = load ptr, ptr %10, align 8
  %12 = load i32, ptr %4, align 4
  %13 = sext i32 %12 to i64
  %14 = getelementptr inbounds %"class.OpenSubdiv::v3_6_0::Bfr::internal::SurfaceData", ptr %11, i64 %13
  br label %22

15:                                               ; preds = %2
  %16 = getelementptr inbounds nuw %"class.OpenSubdiv::v3_6_0::Bfr::SurfaceFactory::SurfaceSet", ptr %5, i32 0, i32 5
  %17 = load ptr, ptr %16, align 8
  %18 = load i32, ptr %4, align 4
  %19 = sext i32 %18 to i64
  %20 = getelementptr inbounds ptr, ptr %17, i64 %19
  %21 = load ptr, ptr %20, align 8
  br label %22

22:                                               ; preds = %15, %9
  %23 = phi ptr [ %14, %9 ], [ %21, %15 ]
  ret ptr %23
}

; Function Attrs: mustprogress nounwind uwtable
define linkonce_odr noundef i64 @_ZNK10OpenSubdiv6v3_6_03Bfr14SurfaceFactory10SurfaceSet16GetFVarSurfaceIDEi(ptr noundef nonnull align 8 dereferenceable(48) %0, i32 noundef %1) #0 comdat align 2 {
  %3 = alloca ptr, align 8
  %4 = alloca i32, align 4
  store ptr %0, ptr %3, align 8
  store i32 %1, ptr %4, align 4
  %5 = load ptr, ptr %3, align 8
  %6 = getelementptr inbounds nuw %"class.OpenSubdiv::v3_6_0::Bfr::SurfaceFactory::SurfaceSet", ptr %5, i32 0, i32 6
  %7 = load ptr, ptr %6, align 8
  %8 = icmp ne ptr %7, null
  br i1 %8, label %9, label %16

9:                                                ; preds = %2
  %10 = getelementptr inbounds nuw %"class.OpenSubdiv::v3_6_0::Bfr::SurfaceFactory::SurfaceSet", ptr %5, i32 0, i32 6
  %11 = load ptr, ptr %10, align 8
  %12 = load i32, ptr %4, align 4
  %13 = sext i32 %12 to i64
  %14 = getelementptr inbounds i64, ptr %11, i64 %13
  %15 = load i64, ptr %14, align 8
  br label %19

16:                                               ; preds = %2
  %17 = load i32, ptr %4, align 4
  %18 = sext i32 %17 to i64
  br label %19

19:                                               ; preds = %16, %9
  %20 = phi i64 [ %15, %9 ], [ %18, %16 ]
  ret i64 %20
}

; Function Attrs: mustprogress nounwind uwtable
define linkonce_odr noundef i32 @_ZNK10OpenSubdiv6v3_6_03Bfr14SurfaceFactory10SurfaceSet18GetNumFVarSurfacesEv(ptr noundef nonnull align 8 dereferenceable(48) %0) #0 comdat align 2 {
  %2 = alloca ptr, align 8
  store ptr %0, ptr %2, align 8
  %3 = load ptr, ptr %2, align 8
  %4 = getelementptr inbounds nuw %"class.OpenSubdiv::v3_6_0::Bfr::SurfaceFactory::SurfaceSet", ptr %3, i32 0, i32 1
  %5 = load i32, ptr %4, align 4
  ret i32 %5
}

; Function Attrs: mustprogress nounwind uwtable
define linkonce_odr noundef ptr @_ZNK10OpenSubdiv6v3_6_03Bfr14SurfaceFactory10SurfaceSet16GetVertexSurfaceEv(ptr noundef nonnull align 8 dereferenceable(48) %0) #0 comdat align 2 {
  %2 = alloca ptr, align 8
  store ptr %0, ptr %2, align 8
  %3 = load ptr, ptr %2, align 8
  %4 = getelementptr inbounds nuw %"class.OpenSubdiv::v3_6_0::Bfr::SurfaceFactory::SurfaceSet", ptr %3, i32 0, i32 2
  %5 = load ptr, ptr %4, align 8
  ret ptr %5
}

; Function Attrs: mustprogress nounwind uwtable
define linkonce_odr noundef zeroext i1 @_ZNK10OpenSubdiv6v3_6_03Bfr14SurfaceFactory10SurfaceSet16HasVertexSurfaceEv(ptr noundef nonnull align 8 dereferenceable(48) %0) #0 comdat align 2 {
  %2 = alloca ptr, align 8
  store ptr %0, ptr %2, align 8
  %3 = load ptr, ptr %2, align 8
  %4 = getelementptr inbounds nuw %"class.OpenSubdiv::v3_6_0::Bfr::SurfaceFactory::SurfaceSet", ptr %3, i32 0, i32 2
  %5 = load ptr, ptr %4, align 8
  %6 = icmp ne ptr %5, null
  ret i1 %6
}

; Function Attrs: mustprogress nounwind uwtable
define linkonce_odr noundef ptr @_ZNK10OpenSubdiv6v3_6_03Bfr14SurfaceFactory10SurfaceSet17GetVaryingSurfaceEv(ptr noundef nonnull align 8 dereferenceable(48) %0) #0 comdat align 2 {
  %2 = alloca ptr, align 8
  store ptr %0, ptr %2, align 8
  %3 = load ptr, ptr %2, align 8
  %4 = getelementptr inbounds nuw %"class.OpenSubdiv::v3_6_0::Bfr::SurfaceFactory::SurfaceSet", ptr %3, i32 0, i32 3
  %5 = load ptr, ptr %4, align 8
  ret ptr %5
}

; Function Attrs: mustprogress nounwind uwtable
define linkonce_odr noundef zeroext i1 @_ZNK10OpenSubdiv6v3_6_03Bfr14SurfaceFactory10SurfaceSet17HasVaryingSurfaceEv(ptr noundef nonnull align 8 dereferenceable(48) %0) #0 comdat align 2 {
  %2 = alloca ptr, align 8
  store ptr %0, ptr %2, align 8
  %3 = load ptr, ptr %2, align 8
  %4 = getelementptr inbounds nuw %"class.OpenSubdiv::v3_6_0::Bfr::SurfaceFactory::SurfaceSet", ptr %3, i32 0, i32 3
  %5 = load ptr, ptr %4, align 8
  %6 = icmp ne ptr %5, null
  ret i1 %6
}

; Function Attrs: mustprogress uwtable
define noundef zeroext i1 @_ZNK10OpenSubdiv6v3_6_03Bfr14SurfaceFactory22populateLinearSurfacesEiPNS2_10SurfaceSetE(ptr noundef nonnull align 8 dereferenceable(56) %0, i32 noundef %1, ptr noundef %2) #1 align 2 {
  %4 = alloca ptr, align 8
  %5 = alloca i32, align 4
  %6 = alloca ptr, align 8
  %7 = alloca ptr, align 8
  %8 = alloca i32, align 4
  %9 = alloca i32, align 4
  %10 = alloca i64, align 8
  store ptr %0, ptr %4, align 8
  store i32 %1, ptr %5, align 4
  store ptr %2, ptr %6, align 8
  %11 = load ptr, ptr %4, align 8
  %12 = load ptr, ptr %6, align 8
  store ptr %12, ptr %7, align 8
  %13 = load ptr, ptr %7, align 8
  %14 = call noundef zeroext i1 @_ZNK10OpenSubdiv6v3_6_03Bfr14SurfaceFactory10SurfaceSet17HasVaryingSurfaceEv(ptr noundef nonnull align 8 dereferenceable(48) %13)
  br i1 %14, label %15, label %19

15:                                               ; preds = %3
  %16 = load ptr, ptr %7, align 8
  %17 = call noundef ptr @_ZNK10OpenSubdiv6v3_6_03Bfr14SurfaceFactory10SurfaceSet17GetVaryingSurfaceEv(ptr noundef nonnull align 8 dereferenceable(48) %16)
  %18 = load i32, ptr %5, align 4
  call void @_ZNK10OpenSubdiv6v3_6_03Bfr14SurfaceFactory19assignLinearSurfaceEPNS1_8internal11SurfaceDataEiPKl(ptr noundef nonnull align 8 dereferenceable(56) %11, ptr noundef %17, i32 noundef %18, ptr noundef null)
  br label %19

19:                                               ; preds = %15, %3
  %20 = getelementptr inbounds nuw %"class.OpenSubdiv::v3_6_0::Bfr::SurfaceFactory", ptr %11, i32 0, i32 4
  %21 = load i8, ptr %20, align 8
  %22 = and i8 %21, 1
  %23 = zext i8 %22 to i32
  %24 = icmp ne i32 %23, 0
  br i1 %24, label %25, label %32

25:                                               ; preds = %19
  %26 = load ptr, ptr %7, align 8
  %27 = call noundef zeroext i1 @_ZNK10OpenSubdiv6v3_6_03Bfr14SurfaceFactory10SurfaceSet16HasVertexSurfaceEv(ptr noundef nonnull align 8 dereferenceable(48) %26)
  br i1 %27, label %28, label %32

28:                                               ; preds = %25
  %29 = load ptr, ptr %7, align 8
  %30 = call noundef ptr @_ZNK10OpenSubdiv6v3_6_03Bfr14SurfaceFactory10SurfaceSet16GetVertexSurfaceEv(ptr noundef nonnull align 8 dereferenceable(48) %29)
  %31 = load i32, ptr %5, align 4
  call void @_ZNK10OpenSubdiv6v3_6_03Bfr14SurfaceFactory19assignLinearSurfaceEPNS1_8internal11SurfaceDataEiPKl(ptr noundef nonnull align 8 dereferenceable(56) %11, ptr noundef %30, i32 noundef %31, ptr noundef null)
  br label %32

32:                                               ; preds = %28, %25, %19
  %33 = getelementptr inbounds nuw %"class.OpenSubdiv::v3_6_0::Bfr::SurfaceFactory", ptr %11, i32 0, i32 4
  %34 = load i8, ptr %33, align 8
  %35 = lshr i8 %34, 1
  %36 = and i8 %35, 1
  %37 = zext i8 %36 to i32
  %38 = icmp ne i32 %37, 0
  br i1 %38, label %39, label %58

39:                                               ; preds = %32
  %40 = load ptr, ptr %7, align 8
  %41 = call noundef i32 @_ZNK10OpenSubdiv6v3_6_03Bfr14SurfaceFactory10SurfaceSet18GetNumFVarSurfacesEv(ptr noundef nonnull align 8 dereferenceable(48) %40)
  store i32 %41, ptr %8, align 4
  store i32 0, ptr %9, align 4
  br label %42

42:                                               ; preds = %54, %39
  %43 = load i32, ptr %9, align 4
  %44 = load i32, ptr %8, align 4
  %45 = icmp slt i32 %43, %44
  br i1 %45, label %46, label %57

46:                                               ; preds = %42
  %47 = load ptr, ptr %7, align 8
  %48 = load i32, ptr %9, align 4
  %49 = call noundef i64 @_ZNK10OpenSubdiv6v3_6_03Bfr14SurfaceFactory10SurfaceSet16GetFVarSurfaceIDEi(ptr noundef nonnull align 8 dereferenceable(48) %47, i32 noundef %48)
  store i64 %49, ptr %10, align 8
  %50 = load ptr, ptr %7, align 8
  %51 = load i32, ptr %9, align 4
  %52 = call noundef ptr @_ZNK10OpenSubdiv6v3_6_03Bfr14SurfaceFactory10SurfaceSet14GetFVarSurfaceEi(ptr noundef nonnull align 8 dereferenceable(48) %50, i32 noundef %51)
  %53 = load i32, ptr %5, align 4
  call void @_ZNK10OpenSubdiv6v3_6_03Bfr14SurfaceFactory19assignLinearSurfaceEPNS1_8internal11SurfaceDataEiPKl(ptr noundef nonnull align 8 dereferenceable(56) %11, ptr noundef %52, i32 noundef %53, ptr noundef %10)
  br label %54

54:                                               ; preds = %46
  %55 = load i32, ptr %9, align 4
  %56 = add nsw i32 %55, 1
  store i32 %56, ptr %9, align 4
  br label %42, !llvm.loop !18

57:                                               ; preds = %42
  br label %58

58:                                               ; preds = %57, %32
  ret i1 true
}