; Function Attrs: mustprogress uwtable
define noundef zeroext i1 @_ZNK10OpenSubdiv6v3_6_03Bfr14SurfaceFactory22populateLinearSurfacesEiPNS2_10SurfaceSetE(ptr noundef nonnull align 8 dereferenceable(56) %0, i32 noundef %1, ptr noundef readonly captures(none) %2) local_unnamed_addr #2 align 2 {
  %4 = alloca i64, align 8
  %5 = getelementptr inbounds nuw i8, ptr %2, i64 16
  %6 = load ptr, ptr %5, align 8
  %.not18 = icmp eq ptr %6, null
  br i1 %.not18, label %8, label %7

7:                                                ; preds = %3
  tail call void @_ZNK10OpenSubdiv6v3_6_03Bfr14SurfaceFactory19assignLinearSurfaceEPNS1_8internal11SurfaceDataEiPKl(ptr noundef nonnull align 8 dereferenceable(56) %0, ptr noundef nonnull %6, i32 noundef %1, ptr noundef null)
  br label %8

8:                                                ; preds = %7, %3
  %9 = getelementptr inbounds nuw i8, ptr %0, i64 40
  %10 = load i8, ptr %9, align 8
  %11 = and i8 %10, 1
  %.not = icmp eq i8 %11, 0
  br i1 %.not, label %16, label %12

12:                                               ; preds = %8
  %13 = getelementptr inbounds nuw i8, ptr %2, i64 8
  %14 = load ptr, ptr %13, align 8
  %.not19 = icmp eq ptr %14, null
  br i1 %.not19, label %16, label %15

15:                                               ; preds = %12
  tail call void @_ZNK10OpenSubdiv6v3_6_03Bfr14SurfaceFactory19assignLinearSurfaceEPNS1_8internal11SurfaceDataEiPKl(ptr noundef nonnull align 8 dereferenceable(56) %0, ptr noundef nonnull %14, i32 noundef %1, ptr noundef null)
  %.pre = load i8, ptr %9, align 8
  br label %16

16:                                               ; preds = %15, %12, %8
  %17 = phi i8 [ %.pre, %15 ], [ %10, %12 ], [ %10, %8 ]
  %18 = and i8 %17, 2
  %.not16 = icmp eq i8 %18, 0
  br i1 %.not16, label %.loopexit, label %19

19:                                               ; preds = %16
  %20 = getelementptr inbounds nuw i8, ptr %2, i64 4
  %21 = load i32, ptr %20, align 4
  %22 = icmp sgt i32 %21, 0
  br i1 %22, label %.lr.ph, label %.loopexit

.lr.ph:                                           ; preds = %19
  %23 = getelementptr inbounds nuw i8, ptr %2, i64 40
  %24 = getelementptr inbounds nuw i8, ptr %2, i64 24
  %25 = getelementptr inbounds nuw i8, ptr %2, i64 32
  %wide.trip.count = zext nneg i32 %21 to i64
  br label %26

26:                                               ; preds = %.lr.ph, %_ZNK10OpenSubdiv6v3_6_03Bfr14SurfaceFactory10SurfaceSet14GetFVarSurfaceEi.exit
  %indvars.iv = phi i64 [ 0, %.lr.ph ], [ %indvars.iv.next, %_ZNK10OpenSubdiv6v3_6_03Bfr14SurfaceFactory10SurfaceSet14GetFVarSurfaceEi.exit ]
  %27 = load ptr, ptr %23, align 8
  %.not.i = icmp eq ptr %27, null
  br i1 %.not.i, label %_ZNK10OpenSubdiv6v3_6_03Bfr14SurfaceFactory10SurfaceSet16GetFVarSurfaceIDEi.exit, label %28

28:                                               ; preds = %26
  %29 = getelementptr inbounds nuw i64, ptr %27, i64 %indvars.iv
  %30 = load i64, ptr %29, align 8
  br label %_ZNK10OpenSubdiv6v3_6_03Bfr14SurfaceFactory10SurfaceSet16GetFVarSurfaceIDEi.exit

_ZNK10OpenSubdiv6v3_6_03Bfr14SurfaceFactory10SurfaceSet16GetFVarSurfaceIDEi.exit: ; preds = %26, %28
  %31 = phi i64 [ %30, %28 ], [ %indvars.iv, %26 ]
  store i64 %31, ptr %4, align 8
  %32 = load ptr, ptr %24, align 8
  %.not.i17 = icmp eq ptr %32, null
  br i1 %.not.i17, label %35, label %33

33:                                               ; preds = %_ZNK10OpenSubdiv6v3_6_03Bfr14SurfaceFactory10SurfaceSet16GetFVarSurfaceIDEi.exit
  %34 = getelementptr inbounds nuw %"class.OpenSubdiv::v3_6_0::Bfr::internal::SurfaceData", ptr %32, i64 %indvars.iv
  br label %_ZNK10OpenSubdiv6v3_6_03Bfr14SurfaceFactory10SurfaceSet14GetFVarSurfaceEi.exit

35:                                               ; preds = %_ZNK10OpenSubdiv6v3_6_03Bfr14SurfaceFactory10SurfaceSet16GetFVarSurfaceIDEi.exit
  %36 = load ptr, ptr %25, align 8
  %37 = getelementptr inbounds nuw ptr, ptr %36, i64 %indvars.iv
  %38 = load ptr, ptr %37, align 8
  br label %_ZNK10OpenSubdiv6v3_6_03Bfr14SurfaceFactory10SurfaceSet14GetFVarSurfaceEi.exit

_ZNK10OpenSubdiv6v3_6_03Bfr14SurfaceFactory10SurfaceSet14GetFVarSurfaceEi.exit: ; preds = %33, %35
  %39 = phi ptr [ %34, %33 ], [ %38, %35 ]
  call void @_ZNK10OpenSubdiv6v3_6_03Bfr14SurfaceFactory19assignLinearSurfaceEPNS1_8internal11SurfaceDataEiPKl(ptr noundef nonnull align 8 dereferenceable(56) %0, ptr noundef %39, i32 noundef %1, ptr noundef nonnull %4)
  %indvars.iv.next = add nuw nsw i64 %indvars.iv, 1
  %exitcond.not = icmp eq i64 %indvars.iv.next, %wide.trip.count
  br i1 %exitcond.not, label %.loopexit, label %26, !llvm.loop !40

.loopexit:                                        ; preds = %_ZNK10OpenSubdiv6v3_6_03Bfr14SurfaceFactory10SurfaceSet14GetFVarSurfaceEi.exit, %19, %16
  ret i1 true
}